#include <math.h>
#include <stdio.h>
#include <stdlib.h>
#include <string.h>

int main()
{
	int i,j,x1,y1,x2,y2,x,m=0,k;
	scanf("%d %d",&x1,&y1);
	int *a;
	a=(int *)malloc(x1*y1*sizeof(int));
    memset(a,0,sizeof(int)*x1*y1);
	for(i=0;i<x1;i++)
		for(j=0;j<y1;j++)
		  scanf("%d",&a[i*y1+j]);
    scanf("%d %d",&x2,&y2);
	int *b;
	b=(int *)malloc(x2*y2*sizeof(int));
     memset(b,0,sizeof(int)*x2*y2);
	for(i=0;i<x2;i++)
		for(j=0;j<y2;j++)
		  scanf("%d",&b[i*y2+j]);
	int *c;
	c=(int *)malloc(x1*y2*sizeof(int));
	memset(c,0,sizeof(int)*x1*y2);
    x=y1>x2?x2:y1;
    for(i=0;i<x1;i++)
		for(j=0;j<y2;j++)
			for(k=0;k<x;k++)
			c[i*y2+j]=c[i*y2+j]+a[i*y1+k]*b[k*y2+j];
	for(i=0;i<x1*y2;i++)
		{
		if(m==(y2-1))
		{
			m=0;
			printf("%d\n",c[i]);
		}
		else 
		{
			printf("%d ",c[i]);
			m++;
		}
	}
    
}